(dp0
S'predictions_alt'
p1
cnumpy.core.multiarray
_reconstruct
p2
(cnumpy
ndarray
p3
(I0
tp4
S'b'
p5
tp6
Rp7
(I1
(I7
I1
tp8
cnumpy
dtype
p9
(S'f4'
p10
I0
I1
tp11
Rp12
(I3
S'<'
p13
NNNI-1
I-1
I0
tp14
bI00
S'\xa6\x06\x88=M\xe3\\?g\x89\xba<p^\x01?w\x90X:u\xff\xe9=\x17B\x84;'
p15
tp16
bsS'predictions_ref'
p17
g2
(g3
(I0
tp18
g5
tp19
Rp20
(I1
(I7
I1
tp21
g12
I00
S'\x87\x03s=Z\x9eP?\xcfH\xa5<\xe3G\x0b?M\xeaY:\xde\xf6\x1a>V\x14\xa9;'
p22
tp23
bs.